target datalayout = "e-m:e-p270:32:32-p271:32:32-p272:64:64-i64:64-i128:128-f80:128-n8:16:32:64-S128"
target triple = "x86_64-pc-linux-gnu"

%struct.Intp_Man_t_ = type { ptr, i32, i32, i32, i32, i32, i32, i32, ptr, ptr, ptr, ptr, ptr, ptr, i32, i32, ptr, ptr, ptr, i32, i32, i64, i64, i64 }
%struct.Sto_Man_t_ = type { i32, i32, i32, i32, ptr, ptr, ptr, i32, i32, ptr }
%struct.Sto_Cls_t_ = type { ptr, ptr, ptr, i32, i32, [0 x i32] }

@.str.15 = private unnamed_addr constant [28 x i8] c"Found root level conflict!\0A\00", align 1

; Function Attrs: nounwind uwtable
define internal i32 @lit_var(i32 noundef %0) #0 {
  %2 = alloca i32, align 4
  store i32 %0, ptr %2, align 4
  %3 = load i32, ptr %2, align 4
  %4 = ashr i32 %3, 1
  ret i32 %4
}

; Function Attrs: nounwind uwtable
define internal i32 @lit_neg(i32 noundef %0) #0 {
  %2 = alloca i32, align 4
  store i32 %0, ptr %2, align 4
  %3 = load i32, ptr %2, align 4
  %4 = xor i32 %3, 1
  ret i32 %4
}

; Function Attrs: nounwind uwtable
define internal i32 @Intp_ManEnqueue(ptr noundef %0, i32 noundef %1, ptr noundef %2) #0 {
  %4 = alloca i32, align 4
  %5 = alloca ptr, align 8
  %6 = alloca i32, align 4
  %7 = alloca ptr, align 8
  %8 = alloca i32, align 4
  store ptr %0, ptr %5, align 8
  store i32 %1, ptr %6, align 4
  store ptr %2, ptr %7, align 8
  %9 = load i32, ptr %6, align 4
  %10 = call i32 @lit_var(i32 noundef %9)
  store i32 %10, ptr %8, align 4
  %11 = load ptr, ptr %5, align 8
  %12 = getelementptr inbounds %struct.Intp_Man_t_, ptr %11, i32 0, i32 9
  %13 = load ptr, ptr %12, align 8
  %14 = load i32, ptr %8, align 4
  %15 = sext i32 %14 to i64
  %16 = getelementptr inbounds i32, ptr %13, i64 %15
  %17 = load i32, ptr %16, align 4
  %18 = icmp ne i32 %17, -1
  br i1 %18, label %19, label %30

19:                                               ; preds = %3
  %20 = load ptr, ptr %5, align 8
  %21 = getelementptr inbounds %struct.Intp_Man_t_, ptr %20, i32 0, i32 9
  %22 = load ptr, ptr %21, align 8
  %23 = load i32, ptr %8, align 4
  %24 = sext i32 %23 to i64
  %25 = getelementptr inbounds i32, ptr %22, i64 %24
  %26 = load i32, ptr %25, align 4
  %27 = load i32, ptr %6, align 4
  %28 = icmp eq i32 %26, %27
  %29 = zext i1 %28 to i32
  store i32 %29, ptr %4, align 4
  br label %55

30:                                               ; preds = %3
  %31 = load i32, ptr %6, align 4
  %32 = load ptr, ptr %5, align 8
  %33 = getelementptr inbounds %struct.Intp_Man_t_, ptr %32, i32 0, i32 9
  %34 = load ptr, ptr %33, align 8
  %35 = load i32, ptr %8, align 4
  %36 = sext i32 %35 to i64
  %37 = getelementptr inbounds i32, ptr %34, i64 %36
  store i32 %31, ptr %37, align 4
  %38 = load ptr, ptr %7, align 8
  %39 = load ptr, ptr %5, align 8
  %40 = getelementptr inbounds %struct.Intp_Man_t_, ptr %39, i32 0, i32 11
  %41 = load ptr, ptr %40, align 8
  %42 = load i32, ptr %8, align 4
  %43 = sext i32 %42 to i64
  %44 = getelementptr inbounds ptr, ptr %41, i64 %43
  store ptr %38, ptr %44, align 8
  %45 = load i32, ptr %6, align 4
  %46 = load ptr, ptr %5, align 8
  %47 = getelementptr inbounds %struct.Intp_Man_t_, ptr %46, i32 0, i32 8
  %48 = load ptr, ptr %47, align 8
  %49 = load ptr, ptr %5, align 8
  %50 = getelementptr inbounds %struct.Intp_Man_t_, ptr %49, i32 0, i32 7
  %51 = load i32, ptr %50, align 8
  %52 = add nsw i32 %51, 1
  store i32 %52, ptr %50, align 8
  %53 = sext i32 %51 to i64
  %54 = getelementptr inbounds i32, ptr %48, i64 %53
  store i32 %45, ptr %54, align 4
  store i32 1, ptr %4, align 4
  br label %55

55:                                               ; preds = %30, %19
  %56 = load i32, ptr %4, align 4
  ret i32 %56
}

; Function Attrs: nounwind uwtable
define internal void @Intp_ManWatchClause(ptr noundef %0, ptr noundef %1, i32 noundef %2) #0 {
  %4 = alloca ptr, align 8
  %5 = alloca ptr, align 8
  %6 = alloca i32, align 4
  store ptr %0, ptr %4, align 8
  store ptr %1, ptr %5, align 8
  store i32 %2, ptr %6, align 4
  %7 = load ptr, ptr %5, align 8
  %8 = getelementptr inbounds %struct.Sto_Cls_t_, ptr %7, i32 0, i32 5
  %9 = getelementptr inbounds [0 x i32], ptr %8, i64 0, i64 0
  %10 = load i32, ptr %9, align 8
  %11 = load i32, ptr %6, align 4
  %12 = icmp eq i32 %10, %11
  br i1 %12, label %13, label %24

13:                                               ; preds = %3
  %14 = load ptr, ptr %4, align 8
  %15 = getelementptr inbounds %struct.Intp_Man_t_, ptr %14, i32 0, i32 12
  %16 = load ptr, ptr %15, align 8
  %17 = load i32, ptr %6, align 4
  %18 = call i32 @lit_neg(i32 noundef %17)
  %19 = sext i32 %18 to i64
  %20 = getelementptr inbounds ptr, ptr %16, i64 %19
  %21 = load ptr, ptr %20, align 8
  %22 = load ptr, ptr %5, align 8
  %23 = getelementptr inbounds %struct.Sto_Cls_t_, ptr %22, i32 0, i32 1
  store ptr %21, ptr %23, align 8
  br label %35

24:                                               ; preds = %3
  %25 = load ptr, ptr %4, align 8
  %26 = getelementptr inbounds %struct.Intp_Man_t_, ptr %25, i32 0, i32 12
  %27 = load ptr, ptr %26, align 8
  %28 = load i32, ptr %6, align 4
  %29 = call i32 @lit_neg(i32 noundef %28)
  %30 = sext i32 %29 to i64
  %31 = getelementptr inbounds ptr, ptr %27, i64 %30
  %32 = load ptr, ptr %31, align 8
  %33 = load ptr, ptr %5, align 8
  %34 = getelementptr inbounds %struct.Sto_Cls_t_, ptr %33, i32 0, i32 2
  store ptr %32, ptr %34, align 8
  br label %35

35:                                               ; preds = %24, %13
  %36 = load ptr, ptr %5, align 8
  %37 = load ptr, ptr %4, align 8
  %38 = getelementptr inbounds %struct.Intp_Man_t_, ptr %37, i32 0, i32 12
  %39 = load ptr, ptr %38, align 8
  %40 = load i32, ptr %6, align 4
  %41 = call i32 @lit_neg(i32 noundef %40)
  %42 = sext i32 %41 to i64
  %43 = getelementptr inbounds ptr, ptr %39, i64 %42
  store ptr %36, ptr %43, align 8
  ret void
}

; Function Attrs: nounwind uwtable
define i32 @Intp_ManProcessRoots(ptr noundef %0) #0 {
  %2 = alloca i32, align 4
  %3 = alloca ptr, align 8
  %4 = alloca ptr, align 8
  %5 = alloca i32, align 4
  store ptr %0, ptr %3, align 8
  store i32 0, ptr %5, align 4
  %6 = load ptr, ptr %3, align 8
  %7 = getelementptr inbounds %struct.Intp_Man_t_, ptr %6, i32 0, i32 0
  %8 = load ptr, ptr %7, align 8
  %9 = getelementptr inbounds %struct.Sto_Man_t_, ptr %8, i32 0, i32 4
  %10 = load ptr, ptr %9, align 8
  store ptr %10, ptr %4, align 8
  br label %11

11:                                               ; preds = %17, %1
  %12 = load ptr, ptr %4, align 8
  %13 = icmp ne ptr %12, null
  br i1 %13, label %14, label %21

14:                                               ; preds = %11
  %15 = load i32, ptr %5, align 4
  %16 = add nsw i32 %15, 1
  store i32 %16, ptr %5, align 4
  br label %17

17:                                               ; preds = %14
  %18 = load ptr, ptr %4, align 8
  %19 = getelementptr inbounds %struct.Sto_Cls_t_, ptr %18, i32 0, i32 0
  %20 = load ptr, ptr %19, align 8
  store ptr %20, ptr %4, align 8
  br label %11, !llvm.loop !32

21:                                               ; preds = %11
  %22 = load ptr, ptr %3, align 8
  %23 = getelementptr inbounds %struct.Intp_Man_t_, ptr %22, i32 0, i32 7
  store i32 0, ptr %23, align 8
  %24 = load ptr, ptr %3, align 8
  %25 = getelementptr inbounds %struct.Intp_Man_t_, ptr %24, i32 0, i32 0
  %26 = load ptr, ptr %25, align 8
  %27 = getelementptr inbounds %struct.Sto_Man_t_, ptr %26, i32 0, i32 4
  %28 = load ptr, ptr %27, align 8
  store ptr %28, ptr %4, align 8
  br label %29

29:                                               ; preds = %95, %21
  %30 = load ptr, ptr %4, align 8
  %31 = icmp ne ptr %30, null
  br i1 %31, label %32, label %39

32:                                               ; preds = %29
  %33 = load ptr, ptr %4, align 8
  %34 = getelementptr inbounds %struct.Sto_Cls_t_, ptr %33, i32 0, i32 4
  %35 = load i32, ptr %34, align 4
  %36 = lshr i32 %35, 1
  %37 = and i32 %36, 1
  %38 = icmp ne i32 %37, 0
  br label %39

39:                                               ; preds = %32, %29
  %40 = phi i1 [ false, %29 ], [ %38, %32 ]
  br i1 %40, label %41, label %99

41:                                               ; preds = %39
  %42 = load ptr, ptr %4, align 8
  %43 = getelementptr inbounds %struct.Sto_Cls_t_, ptr %42, i32 0, i32 4
  %44 = load i32, ptr %43, align 4
  %45 = lshr i32 %44, 3
  %46 = and i32 %45, 16777215
  %47 = icmp sgt i32 %46, 1
  br i1 %47, label %48, label %61

48:                                               ; preds = %41
  %49 = load ptr, ptr %3, align 8
  %50 = load ptr, ptr %4, align 8
  %51 = load ptr, ptr %4, align 8
  %52 = getelementptr inbounds %struct.Sto_Cls_t_, ptr %51, i32 0, i32 5
  %53 = getelementptr inbounds [0 x i32], ptr %52, i64 0, i64 0
  %54 = load i32, ptr %53, align 8
  call void @Intp_ManWatchClause(ptr noundef %49, ptr noundef %50, i32 noundef %54)
  %55 = load ptr, ptr %3, align 8
  %56 = load ptr, ptr %4, align 8
  %57 = load ptr, ptr %4, align 8
  %58 = getelementptr inbounds %struct.Sto_Cls_t_, ptr %57, i32 0, i32 5
  %59 = getelementptr inbounds [0 x i32], ptr %58, i64 0, i64 1
  %60 = load i32, ptr %59, align 4
  call void @Intp_ManWatchClause(ptr noundef %55, ptr noundef %56, i32 noundef %60)
  br label %61

61:                                               ; preds = %48, %41
  %62 = load ptr, ptr %4, align 8
  %63 = getelementptr inbounds %struct.Sto_Cls_t_, ptr %62, i32 0, i32 4
  %64 = load i32, ptr %63, align 4
  %65 = lshr i32 %64, 3
  %66 = and i32 %65, 16777215
  %67 = icmp ne i32 %66, 1
  br i1 %67, label %68, label %69

68:                                               ; preds = %61
  br label %95

69:                                               ; preds = %61
  %70 = load ptr, ptr %3, align 8
  %71 = load ptr, ptr %4, align 8
  %72 = getelementptr inbounds %struct.Sto_Cls_t_, ptr %71, i32 0, i32 5
  %73 = getelementptr inbounds [0 x i32], ptr %72, i64 0, i64 0
  %74 = load i32, ptr %73, align 8
  %75 = load ptr, ptr %4, align 8
  %76 = call i32 @Intp_ManEnqueue(ptr noundef %70, i32 noundef %74, ptr noundef %75)
  %77 = icmp ne i32 %76, 0
  br i1 %77, label %94, label %78

78:                                               ; preds = %69
  %79 = load ptr, ptr %3, align 8
  %80 = load ptr, ptr %4, align 8
  %81 = load ptr, ptr %3, align 8
  %82 = getelementptr inbounds %struct.Intp_Man_t_, ptr %81, i32 0, i32 0
  %83 = load ptr, ptr %82, align 8
  %84 = getelementptr inbounds %struct.Sto_Man_t_, ptr %83, i32 0, i32 6
  %85 = load ptr, ptr %84, align 8
  %86 = call i32 @Intp_ManProofTraceOne(ptr noundef %79, ptr noundef %80, ptr noundef %85)
  %87 = load ptr, ptr %3, align 8
  %88 = getelementptr inbounds %struct.Intp_Man_t_, ptr %87, i32 0, i32 1
  %89 = load i32, ptr %88, align 8
  %90 = icmp ne i32 %89, 0
  br i1 %90, label %91, label %93

91:                                               ; preds = %78
  %92 = call i32 (ptr, ...) @printf(ptr noundef @.str.15)
  br label %93

93:                                               ; preds = %91, %78
  store i32 0, ptr %2, align 4
  br label %126

94:                                               ; preds = %69
  br label %95

95:                                               ; preds = %94, %68
  %96 = load ptr, ptr %4, align 8
  %97 = getelementptr inbounds %struct.Sto_Cls_t_, ptr %96, i32 0, i32 0
  %98 = load ptr, ptr %97, align 8
  store ptr %98, ptr %4, align 8
  br label %29, !llvm.loop !33

99:                                               ; preds = %39
  %100 = load ptr, ptr %3, align 8
  %101 = call ptr @Intp_ManPropagate(ptr noundef %100, i32 noundef 0)
  store ptr %101, ptr %4, align 8
  %102 = load ptr, ptr %4, align 8
  %103 = icmp ne ptr %102, null
  br i1 %103, label %104, label %120

104:                                              ; preds = %99
  %105 = load ptr, ptr %3, align 8
  %106 = load ptr, ptr %4, align 8
  %107 = load ptr, ptr %3, align 8
  %108 = getelementptr inbounds %struct.Intp_Man_t_, ptr %107, i32 0, i32 0
  %109 = load ptr, ptr %108, align 8
  %110 = getelementptr inbounds %struct.Sto_Man_t_, ptr %109, i32 0, i32 6
  %111 = load ptr, ptr %110, align 8
  %112 = call i32 @Intp_ManProofTraceOne(ptr noundef %105, ptr noundef %106, ptr noundef %111)
  %113 = load ptr, ptr %3, align 8
  %114 = getelementptr inbounds %struct.Intp_Man_t_, ptr %113, i32 0, i32 1
  %115 = load i32, ptr %114, align 8
  %116 = icmp ne i32 %115, 0
  br i1 %116, label %117, label %119

117:                                              ; preds = %104
  %118 = call i32 (ptr, ...) @printf(ptr noundef @.str.15)
  br label %119

119:                                              ; preds = %117, %104
  store i32 0, ptr %2, align 4
  br label %126

120:                                              ; preds = %99
  %121 = load ptr, ptr %3, align 8
  %122 = getelementptr inbounds %struct.Intp_Man_t_, ptr %121, i32 0, i32 7
  %123 = load i32, ptr %122, align 8
  %124 = load ptr, ptr %3, align 8
  %125 = getelementptr inbounds %struct.Intp_Man_t_, ptr %124, i32 0, i32 6
  store i32 %123, ptr %125, align 4
  store i32 1, ptr %2, align 4
  br label %126

126:                                              ; preds = %120, %119, %93
  %127 = load i32, ptr %2, align 4
  ret i32 %127
}