; Function Attrs: nounwind uwtable
define range(i32 0, 2) i32 @Intp_ManProcessRoots(ptr noundef captures(none) initializes((32, 36)) %0) local_unnamed_addr #3 {
  %2 = load ptr, ptr %0, align 8
  %3 = getelementptr inbounds nuw i8, ptr %2, i64 16
  %4 = getelementptr inbounds nuw i8, ptr %0, i64 32
  store i32 0, ptr %4, align 8
  %.149 = load ptr, ptr %3, align 8
  %.not3550 = icmp eq ptr %.149, null
  br i1 %.not3550, label %.critedge, label %.lr.ph

.lr.ph:                                           ; preds = %1
  %5 = getelementptr inbounds nuw i8, ptr %0, i64 72
  %6 = getelementptr inbounds nuw i8, ptr %0, i64 48
  %7 = getelementptr inbounds nuw i8, ptr %0, i64 64
  %8 = getelementptr inbounds nuw i8, ptr %0, i64 40
  br label %9

9:                                                ; preds = %.lr.ph, %64
  %.151 = phi ptr [ %.149, %.lr.ph ], [ %.1, %64 ]
  %10 = getelementptr inbounds nuw i8, ptr %.151, i64 28
  %11 = load i32, ptr %10, align 4
  %12 = and i32 %11, 2
  %.not36 = icmp eq i32 %12, 0
  br i1 %.not36, label %.critedge, label %13

13:                                               ; preds = %9
  %14 = and i32 %11, 134217712
  %.not39 = icmp eq i32 %14, 0
  br i1 %.not39, label %38, label %15

15:                                               ; preds = %13
  %16 = getelementptr inbounds nuw i8, ptr %.151, i64 32
  %17 = load i32, ptr %16, align 8
  %18 = load ptr, ptr %5, align 8
  %19 = xor i32 %17, 1
  %20 = sext i32 %19 to i64
  %21 = getelementptr inbounds ptr, ptr %18, i64 %20
  %22 = load ptr, ptr %21, align 8
  %23 = getelementptr inbounds nuw i8, ptr %.151, i64 8
  store ptr %22, ptr %23, align 8
  %24 = load ptr, ptr %5, align 8
  %25 = getelementptr inbounds ptr, ptr %24, i64 %20
  store ptr %.151, ptr %25, align 8
  %26 = getelementptr inbounds nuw i8, ptr %.151, i64 36
  %27 = load i32, ptr %26, align 4
  %28 = load i32, ptr %16, align 8
  %29 = icmp eq i32 %28, %27
  %30 = load ptr, ptr %5, align 8
  %31 = xor i32 %27, 1
  %32 = sext i32 %31 to i64
  %33 = getelementptr inbounds ptr, ptr %30, i64 %32
  %34 = load ptr, ptr %33, align 8
  %..i44 = select i1 %29, i64 8, i64 16
  %35 = getelementptr inbounds nuw i8, ptr %.151, i64 %..i44
  store ptr %34, ptr %35, align 8
  %36 = load ptr, ptr %5, align 8
  %37 = getelementptr inbounds ptr, ptr %36, i64 %32
  store ptr %.151, ptr %37, align 8
  %.pre = load i32, ptr %10, align 4
  br label %38

38:                                               ; preds = %15, %13
  %39 = phi i32 [ %.pre, %15 ], [ %11, %13 ]
  %40 = and i32 %39, 134217720
  %.not40 = icmp eq i32 %40, 8
  br i1 %.not40, label %41, label %64

41:                                               ; preds = %38
  %42 = getelementptr inbounds nuw i8, ptr %.151, i64 32
  %43 = load i32, ptr %42, align 8
  %44 = ashr i32 %43, 1
  %45 = load ptr, ptr %6, align 8
  %46 = sext i32 %44 to i64
  %47 = getelementptr inbounds i32, ptr %45, i64 %46
  %48 = load i32, ptr %47, align 4
  %.not.i = icmp eq i32 %48, -1
  br i1 %.not.i, label %Intp_ManEnqueue.exit.thread, label %Intp_ManEnqueue.exit

Intp_ManEnqueue.exit.thread:                      ; preds = %41
  store i32 %43, ptr %47, align 4
  %49 = load ptr, ptr %7, align 8
  %50 = getelementptr inbounds ptr, ptr %49, i64 %46
  store ptr %.151, ptr %50, align 8
  %51 = load ptr, ptr %8, align 8
  %52 = load i32, ptr %4, align 8
  %53 = add nsw i32 %52, 1
  store i32 %53, ptr %4, align 8
  %54 = sext i32 %52 to i64
  %55 = getelementptr inbounds i32, ptr %51, i64 %54
  store i32 %43, ptr %55, align 4
  br label %64

Intp_ManEnqueue.exit:                             ; preds = %41
  %.not47 = icmp eq i32 %48, %43
  br i1 %.not47, label %64, label %56

56:                                               ; preds = %Intp_ManEnqueue.exit
  %57 = load ptr, ptr %0, align 8
  %58 = getelementptr inbounds nuw i8, ptr %57, i64 32
  %59 = load ptr, ptr %58, align 8
  %60 = tail call i32 @Intp_ManProofTraceOne(ptr noundef nonnull %0, ptr noundef nonnull %.151, ptr noundef %59)
  %61 = getelementptr inbounds nuw i8, ptr %0, i64 8
  %62 = load i32, ptr %61, align 8
  %.not42 = icmp eq i32 %62, 0
  br i1 %.not42, label %77, label %63

63:                                               ; preds = %56
  %puts43 = tail call i32 @puts(ptr nonnull dereferenceable(1) @str.4)
  br label %77

64:                                               ; preds = %Intp_ManEnqueue.exit.thread, %Intp_ManEnqueue.exit, %38
  %.1 = load ptr, ptr %.151, align 8
  %.not35 = icmp eq ptr %.1, null
  br i1 %.not35, label %.critedge, label %9, !llvm.loop !32

.critedge:                                        ; preds = %9, %64, %1
  %65 = tail call ptr @Intp_ManPropagate(ptr noundef nonnull %0, i32 noundef 0)
  %.not37 = icmp eq ptr %65, null
  br i1 %.not37, label %74, label %66

66:                                               ; preds = %.critedge
  %67 = load ptr, ptr %0, align 8
  %68 = getelementptr inbounds nuw i8, ptr %67, i64 32
  %69 = load ptr, ptr %68, align 8
  %70 = tail call i32 @Intp_ManProofTraceOne(ptr noundef nonnull %0, ptr noundef nonnull %65, ptr noundef %69)
  %71 = getelementptr inbounds nuw i8, ptr %0, i64 8
  %72 = load i32, ptr %71, align 8
  %.not38 = icmp eq i32 %72, 0
  br i1 %.not38, label %77, label %73

73:                                               ; preds = %66
  %puts = tail call i32 @puts(ptr nonnull dereferenceable(1) @str.4)
  br label %77

74:                                               ; preds = %.critedge
  %75 = load i32, ptr %4, align 8
  %76 = getelementptr inbounds nuw i8, ptr %0, i64 28
  store i32 %75, ptr %76, align 4
  br label %77

77:                                               ; preds = %66, %73, %56, %63, %74
  %.033 = phi i32 [ 1, %74 ], [ 0, %63 ], [ 0, %56 ], [ 0, %73 ], [ 0, %66 ]
  ret i32 %.033
}